; Function Attrs: nounwind uwtable
define ptr @l___private_Lean_Meta_Tactic_Grind_PP_0__Lean_Meta_Grind_Goal_ppENodeDecl___lambda__4(ptr noundef %0, ptr noundef %1, ptr noundef %2, ptr noundef readonly captures(none) %3, ptr noundef %4, ptr readnone captures(none) %5, ptr noundef %6, ptr noundef %7, ptr noundef %8, ptr noundef %9, ptr noundef %10) local_unnamed_addr #0 {
  %12 = getelementptr inbounds nuw i8, ptr %3, i64 113
  %13 = load i8, ptr %12, align 1, !tbaa !14
  %14 = icmp eq i8 %13, 0
  br i1 %14, label %15, label %24

15:                                               ; preds = %11
  %16 = getelementptr inbounds nuw i8, ptr %3, i64 114
  %17 = load i8, ptr %16, align 1, !tbaa !14
  %18 = icmp eq i8 %17, 0
  br i1 %18, label %l___private_Lean_Meta_Tactic_Grind_PP_0__Lean_Meta_Grind_Goal_ppENodeDecl___lambda__3.exit, label %19

19:                                               ; preds = %15
  %20 = load ptr, ptr @l___private_Lean_Meta_Tactic_Grind_PP_0__Lean_Meta_Grind_Goal_ppENodeDecl___lambda__3___closed__3, align 8, !tbaa !10
  tail call void @lean_inc_heartbeat() #4
  %21 = tail call noalias ptr @mi_malloc_small(i64 noundef 24) #4
  %22 = icmp eq ptr %21, null
  br i1 %22, label %23, label %l___private_Lean_Meta_Tactic_Grind_PP_0__Lean_Meta_Grind_Goal_ppENodeDecl___lambda__3.exit.sink.split

23:                                               ; preds = %19
  tail call void @lean_internal_panic_out_of_memory() #5
  unreachable

24:                                               ; preds = %11
  %25 = load ptr, ptr @l___private_Lean_Meta_Tactic_Grind_PP_0__Lean_Meta_Grind_Goal_ppENodeDecl___lambda__4___closed__3, align 8, !tbaa !10
  tail call void @lean_inc_heartbeat() #4
  %26 = tail call noalias ptr @mi_malloc_small(i64 noundef 24) #4
  %27 = icmp eq ptr %26, null
  br i1 %27, label %28, label %lean_alloc_ctor.exit

28:                                               ; preds = %24
  tail call void @lean_internal_panic_out_of_memory() #5
  unreachable

lean_alloc_ctor.exit:                             ; preds = %24
  %29 = getelementptr inbounds nuw i8, ptr %26, i64 4
  store i32 1, ptr %26, align 4, !tbaa !4
  store i32 117571608, ptr %29, align 4
  %30 = getelementptr inbounds nuw i8, ptr %26, i64 8
  store ptr %4, ptr %30, align 8, !tbaa !10
  %31 = getelementptr inbounds nuw i8, ptr %26, i64 16
  store ptr %25, ptr %31, align 8, !tbaa !10
  %32 = getelementptr inbounds nuw i8, ptr %3, i64 114
  %33 = load i8, ptr %32, align 1, !tbaa !14
  %34 = icmp eq i8 %33, 0
  br i1 %34, label %l___private_Lean_Meta_Tactic_Grind_PP_0__Lean_Meta_Grind_Goal_ppENodeDecl___lambda__3.exit, label %35

35:                                               ; preds = %lean_alloc_ctor.exit
  %36 = load ptr, ptr @l___private_Lean_Meta_Tactic_Grind_PP_0__Lean_Meta_Grind_Goal_ppENodeDecl___lambda__3___closed__3, align 8, !tbaa !10
  tail call void @lean_inc_heartbeat() #4
  %37 = tail call noalias ptr @mi_malloc_small(i64 noundef 24) #4
  %38 = icmp eq ptr %37, null
  br i1 %38, label %39, label %l___private_Lean_Meta_Tactic_Grind_PP_0__Lean_Meta_Grind_Goal_ppENodeDecl___lambda__3.exit.sink.split

39:                                               ; preds = %35
  tail call void @lean_internal_panic_out_of_memory() #5
  unreachable

l___private_Lean_Meta_Tactic_Grind_PP_0__Lean_Meta_Grind_Goal_ppENodeDecl___lambda__3.exit.sink.split: ; preds = %35, %19
  %.sink40 = phi ptr [ %21, %19 ], [ %37, %35 ]
  %.sink35 = phi ptr [ %4, %19 ], [ %26, %35 ]
  %.sink = phi ptr [ %20, %19 ], [ %36, %35 ]
  %40 = getelementptr inbounds nuw i8, ptr %.sink40, i64 4
  store i32 1, ptr %.sink40, align 4, !tbaa !4
  store i32 117571608, ptr %40, align 4
  %41 = getelementptr inbounds nuw i8, ptr %.sink40, i64 8
  store ptr %.sink35, ptr %41, align 8, !tbaa !10
  %42 = getelementptr inbounds nuw i8, ptr %.sink40, i64 16
  store ptr %.sink, ptr %42, align 8, !tbaa !10
  br label %l___private_Lean_Meta_Tactic_Grind_PP_0__Lean_Meta_Grind_Goal_ppENodeDecl___lambda__3.exit

l___private_Lean_Meta_Tactic_Grind_PP_0__Lean_Meta_Grind_Goal_ppENodeDecl___lambda__3.exit: ; preds = %l___private_Lean_Meta_Tactic_Grind_PP_0__Lean_Meta_Grind_Goal_ppENodeDecl___lambda__3.exit.sink.split, %lean_alloc_ctor.exit, %15
  %.sink.i31.sink = phi ptr [ %4, %15 ], [ %26, %lean_alloc_ctor.exit ], [ %.sink40, %l___private_Lean_Meta_Tactic_Grind_PP_0__Lean_Meta_Grind_Goal_ppENodeDecl___lambda__3.exit.sink.split ]
  %43 = tail call ptr @l___private_Lean_Meta_Tactic_Grind_PP_0__Lean_Meta_Grind_Goal_ppENodeDecl___lambda__2(ptr noundef %0, ptr noundef %1, ptr noundef %2, ptr noundef %.sink.i31.sink, ptr nonnull poison, ptr noundef %6, ptr noundef %7, ptr noundef %8, ptr noundef %9, ptr noundef %10)
  ret ptr %43
}